; Function Attrs: nounwind uwtable
define dso_local noundef i32 @resHeat(double %0, ptr noundef %1, ptr noundef %2, ptr noundef %3, ptr noundef readonly captures(none) %4) #0 {
  %6 = tail call ptr @N_VGetArrayPointer(ptr noundef %1) #11
  %7 = tail call ptr @N_VGetArrayPointer(ptr noundef %2) #11
  %8 = tail call ptr @N_VGetArrayPointer(ptr noundef %3) #11
  %9 = getelementptr inbounds nuw i8, ptr %4, i64 16
  %10 = load double, ptr %9, align 8, !tbaa !19
  %11 = load i64, ptr %4, align 8, !tbaa !13
  tail call void @N_VScale(double noundef 1.000000e+00, ptr noundef %1, ptr noundef %3) #11
  %12 = icmp sgt i64 %11, 2
  %13 = fneg double %10
  br i1 %12, label %.lr.ph.us.preheader, label %.split41.us

.lr.ph.us.preheader:                              ; preds = %5
  %14 = add nsw i64 %11, -2
  br label %.lr.ph.us

.lr.ph.us:                                        ; preds = %.lr.ph.us.preheader, %._crit_edge.us
  %.03739.us = phi i64 [ %39, %._crit_edge.us ], [ 1, %.lr.ph.us.preheader ]
  %15 = mul nuw nsw i64 %.03739.us, %11
  br label %16

16:                                               ; preds = %.lr.ph.us, %16
  %.038.us = phi i64 [ 1, %.lr.ph.us ], [ %38, %16 ]
  %17 = add nuw nsw i64 %.038.us, %15
  %18 = getelementptr double, ptr %6, i64 %17
  %19 = getelementptr i8, ptr %18, i64 -8
  %20 = load double, ptr %19, align 8, !tbaa !22
  %21 = getelementptr i8, ptr %18, i64 8
  %22 = load double, ptr %21, align 8, !tbaa !22
  %23 = fadd double %20, %22
  %24 = load double, ptr %18, align 8, !tbaa !22
  %25 = tail call double @llvm.fmuladd.f64(double %24, double -2.000000e+00, double %23)
  %26 = sub nsw i64 %17, %11
  %27 = getelementptr inbounds double, ptr %6, i64 %26
  %28 = load double, ptr %27, align 8, !tbaa !22
  %29 = getelementptr double, ptr %18, i64 %11
  %30 = load double, ptr %29, align 8, !tbaa !22
  %31 = fadd double %28, %30
  %32 = tail call double @llvm.fmuladd.f64(double %24, double -2.000000e+00, double %31)
  %33 = getelementptr inbounds nuw double, ptr %7, i64 %17
  %34 = load double, ptr %33, align 8, !tbaa !22
  %35 = fadd double %25, %32
  %36 = tail call double @llvm.fmuladd.f64(double %13, double %35, double %34)
  %37 = getelementptr inbounds nuw double, ptr %8, i64 %17
  store double %36, ptr %37, align 8, !tbaa !22
  %38 = add nuw nsw i64 %.038.us, 1
  %exitcond.not = icmp eq i64 %.038.us, %14
  br i1 %exitcond.not, label %._crit_edge.us, label %16

._crit_edge.us:                                   ; preds = %16
  %39 = add nuw nsw i64 %.03739.us, 1
  %exitcond43.not = icmp eq i64 %39, 9
  br i1 %exitcond43.not, label %.split41.us, label %.lr.ph.us

.split41.us:                                      ; preds = %._crit_edge.us, %5
  ret i32 0
}